target datalayout = "e-m:e-p270:32:32-p271:32:32-p272:64:64-i64:64-i128:128-f80:128-n8:16:32:64-S128"
target triple = "x86_64-pc-linux-gnu"

%struct.foreach_safe_arg = type { ptr, ptr, i64 }

; Function Attrs: nounwind sspstrong uwtable
define internal i32 @foreach_safe_i(i64 noundef %0, i64 noundef %1, i64 noundef %2, i32 noundef %3) #0 {
  %5 = alloca i32, align 4
  %6 = alloca i64, align 8
  %7 = alloca i64, align 8
  %8 = alloca i64, align 8
  %9 = alloca i32, align 4
  %10 = alloca i32, align 4
  %11 = alloca ptr, align 8
  %12 = alloca i32, align 4
  store i64 %0, ptr %6, align 8, !tbaa !7
  store i64 %1, ptr %7, align 8, !tbaa !7
  store i64 %2, ptr %8, align 8, !tbaa !7
  store i32 %3, ptr %9, align 4, !tbaa !16
  call void @llvm.lifetime.start.p0(i64 4, ptr %10) #28
  call void @llvm.lifetime.start.p0(i64 8, ptr %11) #28
  %13 = load i64, ptr %8, align 8, !tbaa !7
  %14 = inttoptr i64 %13 to ptr
  store ptr %14, ptr %11, align 8, !tbaa !49
  %15 = load i32, ptr %9, align 4, !tbaa !16
  %16 = icmp ne i32 %15, 0
  br i1 %16, label %17, label %18

17:                                               ; preds = %4
  store i32 1, ptr %5, align 4
  store i32 1, ptr %12, align 4
  br label %33

18:                                               ; preds = %4
  %19 = load ptr, ptr %11, align 8, !tbaa !49
  %20 = getelementptr inbounds nuw %struct.foreach_safe_arg, ptr %19, i32 0, i32 1
  %21 = load ptr, ptr %20, align 8, !tbaa !47
  %22 = load i64, ptr %6, align 8, !tbaa !7
  %23 = load i64, ptr %7, align 8, !tbaa !7
  %24 = load ptr, ptr %11, align 8, !tbaa !49
  %25 = getelementptr inbounds nuw %struct.foreach_safe_arg, ptr %24, i32 0, i32 2
  %26 = load i64, ptr %25, align 8, !tbaa !48
  %27 = call i32 %21(i64 noundef %22, i64 noundef %23, i64 noundef %26)
  store i32 %27, ptr %10, align 4, !tbaa !16
  %28 = load i32, ptr %10, align 4, !tbaa !16
  %29 = icmp eq i32 %28, 0
  br i1 %29, label %30, label %31

30:                                               ; preds = %18
  store i32 3, ptr %5, align 4
  store i32 1, ptr %12, align 4
  br label %33

31:                                               ; preds = %18
  %32 = load i32, ptr %10, align 4, !tbaa !16
  store i32 %32, ptr %5, align 4
  store i32 1, ptr %12, align 4
  br label %33

33:                                               ; preds = %31, %30, %17
  call void @llvm.lifetime.end.p0(i64 8, ptr %11) #28
  call void @llvm.lifetime.end.p0(i64 4, ptr %10) #28
  %34 = load i32, ptr %5, align 4
  ret i32 %34
}