; Function Attrs: nounwind sspstrong uwtable
define internal range(i32 1, 0) i32 @foreach_safe_i(i64 noundef %0, i64 noundef %1, i64 noundef %2, i32 noundef %3) #0 {
  %.not = icmp eq i32 %3, 0
  br i1 %.not, label %5, label %13

5:                                                ; preds = %4
  %6 = inttoptr i64 %2 to ptr
  %7 = getelementptr inbounds nuw i8, ptr %6, i64 8
  %8 = load ptr, ptr %7, align 8, !tbaa !43
  %9 = getelementptr inbounds nuw i8, ptr %6, i64 16
  %10 = load i64, ptr %9, align 8, !tbaa !44
  %11 = tail call i32 %8(i64 noundef %0, i64 noundef %1, i64 noundef %10) #28
  %12 = icmp eq i32 %11, 0
  %. = select i1 %12, i32 3, i32 %11
  br label %13

13:                                               ; preds = %5, %4
  %.0 = phi i32 [ 1, %4 ], [ %., %5 ]
  ret i32 %.0
}